; Function Attrs: mustprogress uwtable
define void @_ZN6icu_7511FormattableC2Ev(ptr noundef nonnull align 8 dereferenceable(112) %this) unnamed_addr #1 align 2 personality ptr @__gxx_personality_v0 {
invoke.cont:
  store ptr getelementptr inbounds ({ [5 x ptr] }, ptr @_ZTVN6icu_7511FormattableE, i64 0, i32 0, i64 2), ptr %this, align 8
  %fBogus = getelementptr inbounds i8, ptr %this, i64 48
  store ptr getelementptr inbounds ({ [13 x ptr] }, ptr @_ZTVN6icu_7513UnicodeStringE, i64 0, i32 0, i64 2), ptr %fBogus, align 8
  %fUnion2.i = getelementptr inbounds i8, ptr %this, i64 56
  store i16 2, ptr %fUnion2.i, align 8
  %fValue.i = getelementptr inbounds i8, ptr %this, i64 8
  store i64 0, ptr %fValue.i, align 8
  %fType.i = getelementptr inbounds i8, ptr %this, i64 40
  store i32 2, ptr %fType.i, align 8
  %fDecimalStr.i = getelementptr inbounds i8, ptr %this, i64 24
  tail call void @llvm.memset.p0.i64(ptr noundef nonnull align 8 dereferenceable(16) %fDecimalStr.i, i8 0, i64 16, i1 false)
  invoke void @_ZN6icu_7513UnicodeString10setToBogusEv(ptr noundef nonnull align 8 dereferenceable(64) %fBogus)
          to label %invoke.cont3 unwind label %lpad2

invoke.cont3:                                     ; preds = %invoke.cont
  ret void

lpad2:                                            ; preds = %invoke.cont
  %0 = landingpad { ptr, i32 }
          cleanup
  tail call void @_ZN6icu_7513UnicodeStringD1Ev(ptr noundef nonnull align 8 dereferenceable(64) %fBogus) #16
  tail call void @_ZN6icu_757UObjectD2Ev(ptr noundef nonnull align 8 dereferenceable(8) %this) #16
  resume { ptr, i32 } %0
}